target datalayout = "e-m:e-p270:32:32-p271:32:32-p272:64:64-i64:64-i128:128-f80:128-n8:16:32:64-S128"
target triple = "x86_64-pc-linux-gnu"

%struct._zend_executor_globals = type { %struct._zval_struct, %struct._zval_struct, [32 x ptr], ptr, ptr, %struct._zend_array, %struct._zend_array, ptr, i32, i32, ptr, ptr, ptr, ptr, ptr, ptr, i64, ptr, ptr, i32, i32, i64, i32, i32, i32, i8, i8, %struct.zend_atomic_bool_s, %struct.zend_atomic_bool_s, ptr, i64, ptr, ptr, %struct._zend_array, %struct._zend_array, i32, i8, %struct._zval_struct, %struct._zval_struct, %struct._zend_stack, %struct._zend_stack, %struct._zend_stack, ptr, i32, i32, i64, ptr, ptr, ptr, %struct._zend_objects_store, ptr, ptr, ptr, [3 x %struct._zend_op], ptr, i8, i8, i64, i32, i32, ptr, [16 x %struct._HashTableIterator], ptr, %union._zend_function, %struct._zend_op, %struct._zend_array, i64, %struct.zend_get_gc_buffer, ptr, ptr, ptr, i64, i8, i32, ptr, ptr, i64, %struct._zend_call_stack, i64, i64, [6 x ptr] }
%struct.zend_atomic_bool_s = type { i8 }
%struct._zval_struct = type { %union._zend_value, %union.anon.0, %union.anon.3 }
%union._zend_value = type { i64 }
%union.anon.0 = type { i32 }
%union.anon.3 = type { i32 }
%struct._zend_stack = type { i32, i32, i32, ptr }
%struct._zend_objects_store = type { ptr, i32, i32, i32 }
%struct._HashTableIterator = type { ptr, i32, i32 }
%union._zend_function = type { %struct._zend_op_array }
%struct._zend_op_array = type { i8, [3 x i8], i32, ptr, ptr, ptr, i32, i32, ptr, ptr, ptr, ptr, i32, i32, i32, i32, ptr, ptr, ptr, ptr, ptr, i32, i32, ptr, ptr, ptr, i32, i32, i32, i32, ptr, ptr, [6 x ptr] }
%struct._zend_op = type { ptr, %union._znode_op, %union._znode_op, %union._znode_op, i32, i32, i8, i8, i8, i8 }
%union._znode_op = type { i32 }
%struct._zend_array = type { %struct._zend_refcounted_h, %union.anon.5, i32, %union.anon.7, i32, i32, i32, i32, i64, ptr }
%struct._zend_refcounted_h = type { i32, %union.anon }
%union.anon = type { i32 }
%union.anon.5 = type { i32 }
%union.anon.7 = type { ptr }
%struct.zend_get_gc_buffer = type { ptr, ptr, ptr }
%struct._zend_call_stack = type { ptr, i64 }
%struct._zend_execute_data = type { ptr, ptr, ptr, ptr, %struct._zval_struct, ptr, ptr, ptr, ptr }
%struct.zend_error_handling = type { i32, ptr }

@date_ce_interval = hidden global ptr null, align 8
@executor_globals = external global %struct._zend_executor_globals, align 8
@.str.46 = private unnamed_addr constant [2 x i8] c"O\00", align 1
@date_ce_date_invalid_operation_exception = hidden global ptr null, align 8

; Function Attrs: nounwind uwtable
define internal void @date_clone_immutable(ptr noundef %0, ptr noundef %1) #0 {
  %3 = alloca ptr, align 8
  %4 = alloca ptr, align 8
  %5 = alloca ptr, align 8
  store ptr %0, ptr %3, align 8
  store ptr %1, ptr %4, align 8
  br label %6

6:                                                ; preds = %2
  %7 = load ptr, ptr %4, align 8
  store ptr %7, ptr %5, align 8
  %8 = load ptr, ptr %3, align 8
  %9 = getelementptr inbounds %struct._zval_struct, ptr %8, i32 0, i32 0
  %10 = load ptr, ptr %9, align 8
  %11 = call ptr @date_object_clone_date(ptr noundef %10)
  %12 = load ptr, ptr %5, align 8
  %13 = getelementptr inbounds %struct._zval_struct, ptr %12, i32 0, i32 0
  store ptr %11, ptr %13, align 8
  %14 = load ptr, ptr %5, align 8
  %15 = getelementptr inbounds %struct._zval_struct, ptr %14, i32 0, i32 1
  store i32 776, ptr %15, align 8
  br label %16

16:                                               ; preds = %6
  ret void
}

; Function Attrs: nounwind uwtable
define hidden void @zim_DateTimeImmutable_sub(ptr noundef %0, ptr noundef %1) #0 {
  %3 = alloca ptr, align 8
  %4 = alloca ptr, align 8
  %5 = alloca ptr, align 8
  %6 = alloca ptr, align 8
  %7 = alloca %struct._zval_struct, align 8
  %8 = alloca %struct.zend_error_handling, align 8
  %9 = alloca ptr, align 8
  store ptr %0, ptr %3, align 8
  store ptr %1, ptr %4, align 8
  %10 = load ptr, ptr %3, align 8
  %11 = getelementptr inbounds %struct._zend_execute_data, ptr %10, i32 0, i32 4
  store ptr %11, ptr %5, align 8
  %12 = load ptr, ptr %3, align 8
  %13 = getelementptr inbounds %struct._zend_execute_data, ptr %12, i32 0, i32 4
  %14 = getelementptr inbounds %struct._zval_struct, ptr %13, i32 0, i32 2
  %15 = load i32, ptr %14, align 4
  %16 = load ptr, ptr @date_ce_interval, align 8
  %17 = call i32 (i32, ptr, ...) @zend_parse_parameters(i32 noundef %15, ptr noundef @.str.46, ptr noundef %6, ptr noundef %16)
  %18 = icmp eq i32 %17, -1
  br i1 %18, label %19, label %24

19:                                               ; preds = %2
  br label %20

20:                                               ; preds = %19
  %21 = load ptr, ptr getelementptr inbounds (%struct._zend_executor_globals, ptr @executor_globals, i32 0, i32 50), align 8
  %22 = icmp ne ptr %21, null
  call void @llvm.assume(i1 %22)
  br label %39

23:                                               ; No predecessors!
  br label %24

24:                                               ; preds = %23, %2
  %25 = load ptr, ptr %5, align 8
  call void @date_clone_immutable(ptr noundef %25, ptr noundef %7)
  %26 = load ptr, ptr @date_ce_date_invalid_operation_exception, align 8
  call void @zend_replace_error_handling(i32 noundef 1, ptr noundef %26, ptr noundef %8)
  %27 = load ptr, ptr %6, align 8
  %28 = load ptr, ptr %4, align 8
  call void @php_date_sub(ptr noundef %7, ptr noundef %27, ptr noundef %28)
  call void @zend_restore_error_handling(ptr noundef %8)
  br label %29

29:                                               ; preds = %24
  br label %30

30:                                               ; preds = %29
  %31 = load ptr, ptr %4, align 8
  store ptr %31, ptr %9, align 8
  %32 = getelementptr inbounds %struct._zval_struct, ptr %7, i32 0, i32 0
  %33 = load ptr, ptr %32, align 8
  %34 = load ptr, ptr %9, align 8
  %35 = getelementptr inbounds %struct._zval_struct, ptr %34, i32 0, i32 0
  store ptr %33, ptr %35, align 8
  %36 = load ptr, ptr %9, align 8
  %37 = getelementptr inbounds %struct._zval_struct, ptr %36, i32 0, i32 1
  store i32 776, ptr %37, align 8
  br label %38

38:                                               ; preds = %30
  br label %39

39:                                               ; preds = %38, %20
  ret void
}