; Function Attrs: nounwind uwtable
define hidden void @zim_DateTimeImmutable_sub(ptr nocapture noundef readonly %0, ptr nocapture noundef writeonly %1) #0 {
  %3 = alloca ptr, align 8
  %4 = alloca %struct.zend_error_handling, align 8
  %5 = getelementptr inbounds i8, ptr %0, i64 44
  %6 = load i32, ptr %5, align 4
  %7 = load ptr, ptr @date_ce_interval, align 8
  %8 = call i32 (i32, ptr, ...) @zend_parse_parameters(i32 noundef %6, ptr noundef nonnull @.str.46, ptr noundef nonnull %3, ptr noundef %7) #25
  %9 = icmp eq i32 %8, -1
  br i1 %9, label %10, label %13

10:                                               ; preds = %2
  %11 = load ptr, ptr getelementptr inbounds (%struct._zend_executor_globals, ptr @executor_globals, i64 0, i32 50), align 8
  %12 = icmp ne ptr %11, null
  call void @llvm.assume(i1 %12)
  br label %19

13:                                               ; preds = %2
  %14 = getelementptr inbounds i8, ptr %0, i64 32
  %.val7 = load ptr, ptr %14, align 8
  %15 = call ptr @date_object_clone_date(ptr noundef %.val7)
  %16 = load ptr, ptr @date_ce_date_invalid_operation_exception, align 8
  call void @zend_replace_error_handling(i32 noundef 1, ptr noundef %16, ptr noundef nonnull %4) #25
  %17 = load ptr, ptr %3, align 8
  call fastcc void @php_date_sub(ptr nonnull %15, ptr noundef %17)
  call void @zend_restore_error_handling(ptr noundef nonnull %4) #25
  store ptr %15, ptr %1, align 8
  %18 = getelementptr inbounds i8, ptr %1, i64 8
  store i32 776, ptr %18, align 8
  br label %19

19:                                               ; preds = %13, %10
  ret void
}